; ModuleID = 'source-C-CXX/22/798.c'
source_filename = "source-C-CXX/22/798.c"
target datalayout = "e-m:e-p270:32:32-p271:32:32-p272:64:64-i64:64-f80:128-n8:16:32:64-S128"
target triple = "x86_64-pc-linux-gnu"

; Function Attrs: nounwind sspstrong uwtable
define dso_local void @main() local_unnamed_addr #0 {
  %1 = alloca [100 x i8], align 16
  %2 = getelementptr inbounds [100 x i8], [100 x i8]* %1, i64 0, i64 0
  call void @llvm.lifetime.start.p0i8(i64 100, i8* nonnull %2) #4
  %3 = call i32 (i8*, ...) bitcast (i32 (...)* @gets to i32 (i8*, ...)*)(i8* nonnull %2) #4
  br label %4

4:                                                ; preds = %4, %0
  %5 = phi i64 [ %9, %4 ], [ 0, %0 ]
  %6 = getelementptr inbounds [100 x i8], [100 x i8]* %1, i64 0, i64 %5
  %7 = load i8, i8* %6, align 1, !tbaa !5
  %8 = icmp eq i8 %7, 0
  %9 = add nuw i64 %5, 1
  br i1 %8, label %10, label %4, !llvm.loop !8

10:                                               ; preds = %4
  %11 = trunc i64 %5 to i32
  %12 = icmp eq i32 %11, 0
  br i1 %12, label %48, label %13

13:                                               ; preds = %10, %45
  %14 = phi i64 [ %20, %45 ], [ %5, %10 ]
  %15 = shl i64 %14, 32
  %16 = ashr exact i64 %15, 32
  br label %17

17:                                               ; preds = %17, %13
  %18 = phi i64 [ %20, %17 ], [ %16, %13 ]
  %19 = phi i32 [ %26, %17 ], [ 0, %13 ]
  %20 = add nsw i64 %18, -1
  %21 = getelementptr inbounds [100 x i8], [100 x i8]* %1, i64 0, i64 %20
  %22 = load i8, i8* %21, align 1, !tbaa !5
  %23 = icmp ne i8 %22, 32
  %24 = icmp sgt i64 %18, 0
  %25 = select i1 %23, i1 %24, i1 false
  %26 = add nuw nsw i32 %19, 1
  br i1 %25, label %17, label %27, !llvm.loop !10

27:                                               ; preds = %17
  %28 = trunc i64 %18 to i32
  %29 = icmp eq i32 %19, 0
  br i1 %29, label %43, label %30

30:                                               ; preds = %27
  %31 = add nsw i32 %19, %28
  %32 = shl i64 %18, 32
  %33 = ashr exact i64 %32, 32
  %34 = sext i32 %31 to i64
  br label %35

35:                                               ; preds = %30, %35
  %36 = phi i64 [ %33, %30 ], [ %41, %35 ]
  %37 = getelementptr inbounds [100 x i8], [100 x i8]* %1, i64 0, i64 %36
  %38 = load i8, i8* %37, align 1, !tbaa !5
  %39 = sext i8 %38 to i32
  %40 = call i32 @putchar(i32 %39)
  %41 = add nsw i64 %36, 1
  %42 = icmp slt i64 %41, %34
  br i1 %42, label %35, label %43, !llvm.loop !11

43:                                               ; preds = %35, %27
  %44 = icmp eq i32 %28, 0
  br i1 %44, label %48, label %45

45:                                               ; preds = %43
  %46 = call i32 @putchar(i32 32)
  %47 = icmp sgt i32 %28, 1
  br i1 %47, label %13, label %48, !llvm.loop !12

48:                                               ; preds = %43, %45, %10
  %49 = call i32 @putchar(i32 10)
  call void @llvm.lifetime.end.p0i8(i64 100, i8* nonnull %2) #4
  ret void
}

; Function Attrs: argmemonly mustprogress nofree nosync nounwind willreturn
declare void @llvm.lifetime.start.p0i8(i64 immarg, i8* nocapture) #1

declare i32 @gets(...) local_unnamed_addr #2

; Function Attrs: argmemonly mustprogress nofree nosync nounwind willreturn
declare void @llvm.lifetime.end.p0i8(i64 immarg, i8* nocapture) #1

; Function Attrs: nofree nounwind
declare noundef i32 @putchar(i32 noundef) local_unnamed_addr #3


!llvm.module.flags = !{!0, !1, !2, !3}
!llvm.ident = !{!4}

!0 = !{i32 1, !"wchar_size", i32 4}
!1 = !{i32 7, !"PIC Level", i32 2}
!2 = !{i32 7, !"PIE Level", i32 2}
!3 = !{i32 7, !"uwtable", i32 1}
!4 = !{!"clang version 13.0.0"}
!5 = !{!6, !6, i64 0}
!6 = !{!"omnipotent char", !7, i64 0}
!7 = !{!"Simple C/C++ TBAA"}
!8 = distinct !{!8, !9}
!9 = !{!"llvm.loop.mustprogress"}
!10 = distinct !{!10, !9}
!11 = distinct !{!11, !9}
!12 = distinct !{!12, !9}
